target datalayout = "e-m:e-p270:32:32-p271:32:32-p272:64:64-i64:64-i128:128-f80:128-n8:16:32:64-S128"
target triple = "x86_64-unknown-linux-gnu"

; Function Attrs: mustprogress nounwind uwtable
define hidden noundef i32 @_Z18countEmbeddedNullsPKhj(ptr noundef %StringBytes, i32 noundef %Length) #0 {
entry:
  %StringBytes.addr = alloca ptr, align 8
  %Length.addr = alloca i32, align 4
  %Result = alloca i32, align 4
  %I = alloca i32, align 4
  store ptr %StringBytes, ptr %StringBytes.addr, align 8
  store i32 %Length, ptr %Length.addr, align 4
  store i32 0, ptr %Result, align 4
  store i32 0, ptr %I, align 4
  br label %for.cond

for.cond:                                         ; preds = %for.inc, %entry
  %0 = load i32, ptr %I, align 4
  %1 = load i32, ptr %Length.addr, align 4
  %cmp = icmp ult i32 %0, %1
  br i1 %cmp, label %for.body, label %for.end

for.body:                                         ; preds = %for.cond
  %2 = load ptr, ptr %StringBytes.addr, align 8
  %incdec.ptr = getelementptr inbounds i8, ptr %2, i32 1
  store ptr %incdec.ptr, ptr %StringBytes.addr, align 8
  %3 = load i8, ptr %2, align 1
  %conv = zext i8 %3 to i32
  %cmp1 = icmp eq i32 %conv, 0
  br i1 %cmp1, label %if.then, label %if.end

if.then:                                          ; preds = %for.body
  %4 = load i32, ptr %Result, align 4
  %inc = add i32 %4, 1
  store i32 %inc, ptr %Result, align 4
  br label %if.end

if.end:                                           ; preds = %if.then, %for.body
  br label %for.inc

for.inc:                                          ; preds = %if.end
  %5 = load i32, ptr %I, align 4
  %inc2 = add i32 %5, 1
  store i32 %inc2, ptr %I, align 4
  br label %for.cond, !llvm.loop !6

for.end:                                          ; preds = %for.cond
  %6 = load i32, ptr %Result, align 4
  ret i32 %6
}