; Function Attrs: mustprogress nofree norecurse nosync nounwind willreturn memory(read, inaccessiblemem: none) uwtable
define hidden noundef i32 @_Z18countEmbeddedNullsPKhj(ptr nocapture noundef readonly %StringBytes, i32 noundef %Length) local_unnamed_addr #1 {
entry:
  %cmp3.not = icmp eq i32 %Length, 0
  br i1 %cmp3.not, label %for.end, label %for.body

for.body:                                         ; preds = %entry, %for.body
  %I.06 = phi i32 [ %inc2, %for.body ], [ 0, %entry ]
  %Result.05 = phi i32 [ %spec.select, %for.body ], [ 0, %entry ]
  %StringBytes.addr.04 = phi ptr [ %incdec.ptr, %for.body ], [ %StringBytes, %entry ]
  %incdec.ptr = getelementptr inbounds i8, ptr %StringBytes.addr.04, i64 1
  %0 = load i8, ptr %StringBytes.addr.04, align 1
  %cmp1 = icmp eq i8 %0, 0
  %inc = zext i1 %cmp1 to i32
  %spec.select = add i32 %Result.05, %inc
  %inc2 = add nuw i32 %I.06, 1
  %exitcond.not = icmp eq i32 %inc2, %Length
  br i1 %exitcond.not, label %for.end, label %for.body, !llvm.loop !6

for.end:                                          ; preds = %for.body, %entry
  %Result.0.lcssa = phi i32 [ 0, %entry ], [ %spec.select, %for.body ]
  ret i32 %Result.0.lcssa
}